; Function Attrs: mustprogress nounwind uwtable
define dso_local void @_ZN4llvm8codeview16CodeViewRecordIO11skipPaddingEv(ptr dead_on_unwind noalias writable sret(%"class.llvm::Error") align 8 %0, ptr noundef nonnull readonly align 8 captures(none) dereferenceable(72) %1) local_unnamed_addr #0 align 2 {
  %3 = getelementptr inbounds nuw i8, ptr %1, i64 40
  %4 = load ptr, ptr %3, align 8
  %5 = getelementptr inbounds nuw i8, ptr %4, i64 48
  %6 = load i8, ptr %5, align 8
  %7 = trunc i8 %6 to i1
  br i1 %7, label %8, label %11

8:                                                ; preds = %2
  %9 = getelementptr inbounds nuw i8, ptr %4, i64 40
  %10 = load i64, ptr %9, align 8
  br label %_ZNK4llvm18BinaryStreamReader14bytesRemainingEv.exit

11:                                               ; preds = %2
  %12 = getelementptr inbounds nuw i8, ptr %4, i64 24
  %13 = load ptr, ptr %12, align 8
  %.not.i.i.i = icmp eq ptr %13, null
  br i1 %.not.i.i.i, label %_ZNK4llvm18BinaryStreamReader14bytesRemainingEv.exit, label %14

14:                                               ; preds = %11
  %15 = load ptr, ptr %13, align 8
  %16 = getelementptr inbounds nuw i8, ptr %15, i64 40
  %17 = load ptr, ptr %16, align 8
  %18 = tail call noundef i64 %17(ptr noundef nonnull align 8 dereferenceable(8) %13) #14
  %19 = getelementptr inbounds nuw i8, ptr %4, i64 32
  %20 = load i64, ptr %19, align 8
  %21 = sub i64 %18, %20
  br label %_ZNK4llvm18BinaryStreamReader14bytesRemainingEv.exit

_ZNK4llvm18BinaryStreamReader14bytesRemainingEv.exit: ; preds = %8, %11, %14
  %.0.i.i.i = phi i64 [ %10, %8 ], [ %21, %14 ], [ 0, %11 ]
  %22 = getelementptr inbounds nuw i8, ptr %4, i64 56
  %23 = load i64, ptr %22, align 8
  %24 = icmp eq i64 %.0.i.i.i, %23
  br i1 %24, label %_ZN4llvm12ErrorSuccessD2Ev.exit, label %25

_ZN4llvm12ErrorSuccessD2Ev.exit:                  ; preds = %_ZNK4llvm18BinaryStreamReader14bytesRemainingEv.exit
  store ptr null, ptr %0, align 8
  br label %33

25:                                               ; preds = %_ZNK4llvm18BinaryStreamReader14bytesRemainingEv.exit
  %26 = load ptr, ptr %3, align 8
  %27 = tail call noundef zeroext i8 @_ZNK4llvm18BinaryStreamReader4peekEv(ptr noundef nonnull align 8 dereferenceable(64) %26) #14
  %28 = icmp ult i8 %27, -16
  br i1 %28, label %_ZN4llvm12ErrorSuccessD2Ev.exit3, label %29

_ZN4llvm12ErrorSuccessD2Ev.exit3:                 ; preds = %25
  store ptr null, ptr %0, align 8
  br label %33

29:                                               ; preds = %25
  %30 = and i8 %27, 15
  %31 = load ptr, ptr %3, align 8
  %32 = zext nneg i8 %30 to i64
  tail call void @_ZN4llvm18BinaryStreamReader4skipEm(ptr dead_on_unwind writable sret(%"class.llvm::Error") align 8 %0, ptr noundef nonnull align 8 dereferenceable(64) %31, i64 noundef %32) #14
  br label %33

33:                                               ; preds = %29, %_ZN4llvm12ErrorSuccessD2Ev.exit3, %_ZN4llvm12ErrorSuccessD2Ev.exit
  ret void
}